; Function Attrs: nounwind uwtable
define noalias nonnull ptr @l_Lean_RBNode_mapM___rarg___lambda__1(i8 noundef zeroext %0, ptr noundef %1, ptr noundef %2, ptr noundef %3, ptr noundef %4) local_unnamed_addr #1 {
  tail call void @lean_inc_heartbeat() #9
  %6 = tail call noalias ptr @mi_malloc_small(i64 noundef 48) #9
  %7 = icmp eq ptr %6, null
  br i1 %7, label %8, label %lean_alloc_ctor.exit

8:                                                ; preds = %5
  tail call void @lean_internal_panic_out_of_memory() #10
  unreachable

lean_alloc_ctor.exit:                             ; preds = %5
  %9 = getelementptr inbounds nuw i8, ptr %6, i64 4
  %10 = getelementptr inbounds nuw i8, ptr %6, i64 40
  store i64 0, ptr %10, align 8, !tbaa !16
  store i32 1, ptr %6, align 4, !tbaa !4
  store i32 17039408, ptr %9, align 4
  %11 = getelementptr inbounds nuw i8, ptr %6, i64 8
  store ptr %2, ptr %11, align 8, !tbaa !10
  %12 = getelementptr inbounds nuw i8, ptr %6, i64 16
  store ptr %1, ptr %12, align 8, !tbaa !10
  %13 = getelementptr inbounds nuw i8, ptr %6, i64 24
  store ptr %3, ptr %13, align 8, !tbaa !10
  %14 = getelementptr inbounds nuw i8, ptr %6, i64 32
  store ptr %4, ptr %14, align 8, !tbaa !10
  store i8 %0, ptr %10, align 1, !tbaa !18
  ret ptr %6
}